; ModuleID = 'bench/openjdk/original/PollSelectorImpl.ll'
source_filename = "bench/openjdk/original/PollSelectorImpl.ll"
target datalayout = "e-m:e-p270:32:32-p271:32:32-p272:64:64-i64:64-i128:128-f80:128-n8:16:32:64-S128"
target triple = "x86_64-pc-linux-gnu"

@.str = private unnamed_addr constant [12 x i8] c"poll failed\00", align 1

; Function Attrs: nounwind uwtable
define range(i32 -5, -2147483648) i32 @Java_sun_nio_ch_PollSelectorImpl_poll(ptr noundef %0, ptr nocapture noundef readnone %1, i64 noundef %2, i32 noundef %3, i32 noundef %4) local_unnamed_addr #0 {
  %6 = inttoptr i64 %2 to ptr
  %7 = sext i32 %3 to i64
  %8 = tail call i32 @poll(ptr noundef %6, i64 noundef %7, i32 noundef %4) #3
  %9 = icmp slt i32 %8, 0
  br i1 %9, label %10, label %15

10:                                               ; preds = %5
  %11 = tail call ptr @__errno_location() #4
  %12 = load i32, ptr %11, align 4
  %13 = icmp eq i32 %12, 4
  br i1 %13, label %15, label %14

14:                                               ; preds = %10
  tail call void @JNU_ThrowIOExceptionWithLastError(ptr noundef %0, ptr noundef nonnull @.str) #3
  br label %15

15:                                               ; preds = %5, %10, %14
  %.0 = phi i32 [ -5, %14 ], [ -3, %10 ], [ %8, %5 ]
  ret i32 %.0
}

declare i32 @poll(ptr noundef, i64 noundef, i32 noundef) local_unnamed_addr #1

; Function Attrs: mustprogress nofree nosync nounwind willreturn memory(none)
declare ptr @__errno_location() local_unnamed_addr #2

declare void @JNU_ThrowIOExceptionWithLastError(ptr noundef, ptr noundef) local_unnamed_addr #1


!llvm.module.flags = !{!0, !1, !2, !3, !4, !5}

!0 = !{i32 7, !"Dwarf Version", i32 5}
!1 = !{i32 2, !"Debug Info Version", i32 3}
!2 = !{i32 1, !"wchar_size", i32 4}
!3 = !{i32 8, !"PIC Level", i32 2}
!4 = !{i32 7, !"uwtable", i32 2}
!5 = !{i32 7, !"frame-pointer", i32 2}
